; Function Attrs: mustprogress uwtable
define void @_ZN2cv4gapi6stereoERKNS_4GMatES3_NS0_18StereoOutputFormatE(ptr dead_on_unwind noalias writable sret(%"class.cv::GMat") align 8 %0, ptr noundef nonnull readonly align 8 captures(none) dereferenceable(16) %1, ptr noundef nonnull readonly align 8 captures(none) dereferenceable(16) %2, i32 noundef %3) local_unnamed_addr #3 personality ptr @__gxx_personality_v0 {
  %5 = alloca %"class.cv::GMat", align 8
  %6 = alloca %"class.cv::GMat", align 8
  %7 = load ptr, ptr %1, align 8
  store ptr %7, ptr %5, align 8
  %8 = getelementptr inbounds nuw i8, ptr %5, i64 8
  %9 = getelementptr inbounds nuw i8, ptr %1, i64 8
  %10 = load ptr, ptr %9, align 8
  store ptr %10, ptr %8, align 8
  %.not.i.i.i.i = icmp eq ptr %10, null
  br i1 %.not.i.i.i.i, label %_ZN2cv4GMatC2ERKS0_.exit, label %11

11:                                               ; preds = %4
  %12 = getelementptr inbounds nuw i8, ptr %10, i64 8
  %13 = load i8, ptr @__libc_single_threaded, align 1
  %.not.i.i.i.i.i = icmp eq i8 %13, 0
  br i1 %.not.i.i.i.i.i, label %17, label %14

14:                                               ; preds = %11
  %15 = load i32, ptr %12, align 4
  %16 = add nsw i32 %15, 1
  store i32 %16, ptr %12, align 4
  br label %_ZN2cv4GMatC2ERKS0_.exit

17:                                               ; preds = %11
  %18 = atomicrmw volatile add ptr %12, i32 1 acq_rel, align 4
  br label %_ZN2cv4GMatC2ERKS0_.exit

_ZN2cv4GMatC2ERKS0_.exit:                         ; preds = %4, %14, %17
  %19 = load ptr, ptr %2, align 8
  store ptr %19, ptr %6, align 8
  %20 = getelementptr inbounds nuw i8, ptr %6, i64 8
  %21 = getelementptr inbounds nuw i8, ptr %2, i64 8
  %22 = load ptr, ptr %21, align 8
  store ptr %22, ptr %20, align 8
  %.not.i.i.i.i4 = icmp eq ptr %22, null
  br i1 %.not.i.i.i.i4, label %_ZN2cv4GMatC2ERKS0_.exit6, label %23

23:                                               ; preds = %_ZN2cv4GMatC2ERKS0_.exit
  %24 = getelementptr inbounds nuw i8, ptr %22, i64 8
  %25 = load i8, ptr @__libc_single_threaded, align 1
  %.not.i.i.i.i.i5 = icmp eq i8 %25, 0
  br i1 %.not.i.i.i.i.i5, label %29, label %26

26:                                               ; preds = %23
  %27 = load i32, ptr %24, align 4
  %28 = add nsw i32 %27, 1
  store i32 %28, ptr %24, align 4
  br label %_ZN2cv4GMatC2ERKS0_.exit6

29:                                               ; preds = %23
  %30 = atomicrmw volatile add ptr %24, i32 1 acq_rel, align 4
  br label %_ZN2cv4GMatC2ERKS0_.exit6

_ZN2cv4GMatC2ERKS0_.exit6:                        ; preds = %_ZN2cv4GMatC2ERKS0_.exit, %26, %29
  invoke void @_ZN2cv11GKernelTypeINS_4gapi7calib3d7GStereoESt8functionIFNS_4GMatES5_S5_NS1_18StereoOutputFormatEEEE2onES5_S5_S6_(ptr dead_on_unwind writable sret(%"class.cv::GMat") align 8 %0, ptr noundef nonnull %5, ptr noundef nonnull %6, i32 noundef %3)
          to label %31 unwind label %102

31:                                               ; preds = %_ZN2cv4GMatC2ERKS0_.exit6
  %32 = load ptr, ptr %20, align 8
  %.not.i.i.i.i7 = icmp eq ptr %32, null
  br i1 %.not.i.i.i.i7, label %_ZN2cv4GMatD2Ev.exit, label %33

33:                                               ; preds = %31
  %34 = getelementptr inbounds nuw i8, ptr %32, i64 8
  %35 = load atomic i64, ptr %34 acquire, align 8
  %36 = icmp eq i64 %35, 4294967297
  %37 = trunc i64 %35 to i32
  br i1 %36, label %38, label %43

38:                                               ; preds = %33
  store i32 0, ptr %34, align 8
  %39 = getelementptr inbounds nuw i8, ptr %32, i64 12
  store i32 0, ptr %39, align 4
  %40 = load ptr, ptr %32, align 8
  %41 = getelementptr inbounds nuw i8, ptr %40, i64 16
  %42 = load ptr, ptr %41, align 8
  call void %42(ptr noundef nonnull align 8 dereferenceable(16) %32) #18
  br label %_ZNSt16_Sp_counted_baseILN9__gnu_cxx12_Lock_policyE2EE24_M_release_last_use_coldEv.exit.sink.split.i.i.i.i.i

43:                                               ; preds = %33
  %44 = load i8, ptr @__libc_single_threaded, align 1
  %.not.i.i.i.i.i8 = icmp eq i8 %44, 0
  br i1 %.not.i.i.i.i.i8, label %47, label %45

45:                                               ; preds = %43
  %46 = add nsw i32 %37, -1
  store i32 %46, ptr %34, align 4
  br label %49

47:                                               ; preds = %43
  %48 = atomicrmw volatile add ptr %34, i32 -1 acq_rel, align 4
  br label %49

49:                                               ; preds = %47, %45
  %.0.i.i.i.i.i = phi i32 [ %37, %45 ], [ %48, %47 ]
  %50 = icmp eq i32 %.0.i.i.i.i.i, 1
  br i1 %50, label %51, label %_ZN2cv4GMatD2Ev.exit

51:                                               ; preds = %49
  %52 = load ptr, ptr %32, align 8
  %53 = getelementptr inbounds nuw i8, ptr %52, i64 16
  %54 = load ptr, ptr %53, align 8
  call void %54(ptr noundef nonnull align 8 dereferenceable(16) %32) #18
  %55 = getelementptr inbounds nuw i8, ptr %32, i64 12
  %56 = load i8, ptr @__libc_single_threaded, align 1
  %.not.i.i.i.i.i.i.i = icmp eq i8 %56, 0
  br i1 %.not.i.i.i.i.i.i.i, label %60, label %57

57:                                               ; preds = %51
  %58 = load i32, ptr %55, align 4
  %59 = add nsw i32 %58, -1
  store i32 %59, ptr %55, align 4
  br label %62

60:                                               ; preds = %51
  %61 = atomicrmw volatile add ptr %55, i32 -1 acq_rel, align 4
  br label %62

62:                                               ; preds = %60, %57
  %.0.i.i.i.i.i.i.i = phi i32 [ %58, %57 ], [ %61, %60 ]
  %63 = icmp eq i32 %.0.i.i.i.i.i.i.i, 1
  br i1 %63, label %_ZNSt16_Sp_counted_baseILN9__gnu_cxx12_Lock_policyE2EE24_M_release_last_use_coldEv.exit.sink.split.i.i.i.i.i, label %_ZN2cv4GMatD2Ev.exit

_ZNSt16_Sp_counted_baseILN9__gnu_cxx12_Lock_policyE2EE24_M_release_last_use_coldEv.exit.sink.split.i.i.i.i.i: ; preds = %62, %38
  %64 = load ptr, ptr %32, align 8
  %65 = getelementptr inbounds nuw i8, ptr %64, i64 24
  %66 = load ptr, ptr %65, align 8
  call void %66(ptr noundef nonnull align 8 dereferenceable(16) %32) #18
  br label %_ZN2cv4GMatD2Ev.exit

_ZN2cv4GMatD2Ev.exit:                             ; preds = %31, %49, %62, %_ZNSt16_Sp_counted_baseILN9__gnu_cxx12_Lock_policyE2EE24_M_release_last_use_coldEv.exit.sink.split.i.i.i.i.i
  %67 = load ptr, ptr %8, align 8
  %.not.i.i.i.i9 = icmp eq ptr %67, null
  br i1 %.not.i.i.i.i9, label %_ZN2cv4GMatD2Ev.exit15, label %68

68:                                               ; preds = %_ZN2cv4GMatD2Ev.exit
  %69 = getelementptr inbounds nuw i8, ptr %67, i64 8
  %70 = load atomic i64, ptr %69 acquire, align 8
  %71 = icmp eq i64 %70, 4294967297
  %72 = trunc i64 %70 to i32
  br i1 %71, label %73, label %78

73:                                               ; preds = %68
  store i32 0, ptr %69, align 8
  %74 = getelementptr inbounds nuw i8, ptr %67, i64 12
  store i32 0, ptr %74, align 4
  %75 = load ptr, ptr %67, align 8
  %76 = getelementptr inbounds nuw i8, ptr %75, i64 16
  %77 = load ptr, ptr %76, align 8
  call void %77(ptr noundef nonnull align 8 dereferenceable(16) %67) #18
  br label %_ZNSt16_Sp_counted_baseILN9__gnu_cxx12_Lock_policyE2EE24_M_release_last_use_coldEv.exit.sink.split.i.i.i.i.i14

78:                                               ; preds = %68
  %79 = load i8, ptr @__libc_single_threaded, align 1
  %.not.i.i.i.i.i10 = icmp eq i8 %79, 0
  br i1 %.not.i.i.i.i.i10, label %82, label %80

80:                                               ; preds = %78
  %81 = add nsw i32 %72, -1
  store i32 %81, ptr %69, align 4
  br label %84

82:                                               ; preds = %78
  %83 = atomicrmw volatile add ptr %69, i32 -1 acq_rel, align 4
  br label %84

84:                                               ; preds = %82, %80
  %.0.i.i.i.i.i11 = phi i32 [ %72, %80 ], [ %83, %82 ]
  %85 = icmp eq i32 %.0.i.i.i.i.i11, 1
  br i1 %85, label %86, label %_ZN2cv4GMatD2Ev.exit15

86:                                               ; preds = %84
  %87 = load ptr, ptr %67, align 8
  %88 = getelementptr inbounds nuw i8, ptr %87, i64 16
  %89 = load ptr, ptr %88, align 8
  call void %89(ptr noundef nonnull align 8 dereferenceable(16) %67) #18
  %90 = getelementptr inbounds nuw i8, ptr %67, i64 12
  %91 = load i8, ptr @__libc_single_threaded, align 1
  %.not.i.i.i.i.i.i.i12 = icmp eq i8 %91, 0
  br i1 %.not.i.i.i.i.i.i.i12, label %95, label %92

92:                                               ; preds = %86
  %93 = load i32, ptr %90, align 4
  %94 = add nsw i32 %93, -1
  store i32 %94, ptr %90, align 4
  br label %97

95:                                               ; preds = %86
  %96 = atomicrmw volatile add ptr %90, i32 -1 acq_rel, align 4
  br label %97

97:                                               ; preds = %95, %92
  %.0.i.i.i.i.i.i.i13 = phi i32 [ %93, %92 ], [ %96, %95 ]
  %98 = icmp eq i32 %.0.i.i.i.i.i.i.i13, 1
  br i1 %98, label %_ZNSt16_Sp_counted_baseILN9__gnu_cxx12_Lock_policyE2EE24_M_release_last_use_coldEv.exit.sink.split.i.i.i.i.i14, label %_ZN2cv4GMatD2Ev.exit15

_ZNSt16_Sp_counted_baseILN9__gnu_cxx12_Lock_policyE2EE24_M_release_last_use_coldEv.exit.sink.split.i.i.i.i.i14: ; preds = %97, %73
  %99 = load ptr, ptr %67, align 8
  %100 = getelementptr inbounds nuw i8, ptr %99, i64 24
  %101 = load ptr, ptr %100, align 8
  call void %101(ptr noundef nonnull align 8 dereferenceable(16) %67) #18
  br label %_ZN2cv4GMatD2Ev.exit15

_ZN2cv4GMatD2Ev.exit15:                           ; preds = %_ZN2cv4GMatD2Ev.exit, %84, %97, %_ZNSt16_Sp_counted_baseILN9__gnu_cxx12_Lock_policyE2EE24_M_release_last_use_coldEv.exit.sink.split.i.i.i.i.i14
  ret void

102:                                              ; preds = %_ZN2cv4GMatC2ERKS0_.exit6
  %103 = landingpad { ptr, i32 }
          cleanup
  call void @_ZN2cv4GMatD2Ev(ptr noundef nonnull align 8 dereferenceable(16) %6) #18
  call void @_ZN2cv4GMatD2Ev(ptr noundef nonnull align 8 dereferenceable(16) %5) #18
  resume { ptr, i32 } %103
}